; Function Attrs: mustprogress nounwind uwtable
define dso_local void @_ZN5vcpkg4Json5Value6objectERKNS0_6ObjectE(ptr dead_on_unwind noalias writable sret(%"struct.vcpkg::Json::Value") align 8 %0, ptr noundef nonnull align 8 dereferenceable(24) %1) local_unnamed_addr #1 align 2 personality ptr @__gxx_personality_v0 {
  %3 = alloca %"class.std::unique_ptr", align 8
  %4 = alloca %"struct.std::integral_constant.15", align 1
  store ptr null, ptr %0, align 8
  invoke void @_ZSt11make_uniqueIN5vcpkg4Json4impl9ValueImplEJSt17integral_constantINS1_9ValueKindELS5_6EERKNS1_6ObjectEEENSt8__detail9_MakeUniqIT_E15__single_objectEDpOT0_(ptr dead_on_unwind nonnull writable sret(%"class.std::unique_ptr") align 8 %3, ptr noundef nonnull align 1 dereferenceable(1) %4, ptr noundef nonnull align 8 dereferenceable(24) %1)
          to label %5 unwind label %8

5:                                                ; preds = %2
  %6 = load ptr, ptr %3, align 8
  store ptr null, ptr %3, align 8
  call void @_ZNSt15__uniq_ptr_implIN5vcpkg4Json4impl9ValueImplESt14default_deleteIS3_EE5resetEPS3_(ptr noundef nonnull align 8 dereferenceable(8) %0, ptr noundef %6) #26
  %7 = load ptr, ptr %3, align 8
  %.not.i = icmp eq ptr %7, null
  br i1 %.not.i, label %_ZNSt10unique_ptrIN5vcpkg4Json4impl9ValueImplESt14default_deleteIS3_EED2Ev.exit, label %_ZNKSt14default_deleteIN5vcpkg4Json4impl9ValueImplEEclEPS3_.exit.i

_ZNKSt14default_deleteIN5vcpkg4Json4impl9ValueImplEEclEPS3_.exit.i: ; preds = %5
  call void @_ZN5vcpkg4Json4impl9ValueImpl18destroy_underlyingEv(ptr noundef nonnull align 8 dereferenceable(40) %7) #30
  call void @_ZdlPv(ptr noundef nonnull %7) #29
  br label %_ZNSt10unique_ptrIN5vcpkg4Json4impl9ValueImplESt14default_deleteIS3_EED2Ev.exit

_ZNSt10unique_ptrIN5vcpkg4Json4impl9ValueImplESt14default_deleteIS3_EED2Ev.exit: ; preds = %5, %_ZNKSt14default_deleteIN5vcpkg4Json4impl9ValueImplEEclEPS3_.exit.i
  ret void

8:                                                ; preds = %2
  %9 = landingpad { ptr, i32 }
          catch ptr null
  %10 = extractvalue { ptr, i32 } %9, 0
  call void @__clang_call_terminate(ptr %10) #25
  unreachable
}